target datalayout = "e-m:e-p270:32:32-p271:32:32-p272:64:64-i64:64-i128:128-f80:128-n8:16:32:64-S128"
target triple = "x86_64-pc-linux-gnu"

%"class.LIEF::PE::RichHeader" = type { %"class.LIEF::Object", i32, %"class.std::vector.39" }
%"class.LIEF::Object" = type { ptr }
%"class.std::vector.39" = type { %"struct.std::_Vector_base.40" }
%"struct.std::_Vector_base.40" = type { %"struct.std::_Vector_base<LIEF::PE::RichEntry, std::allocator<LIEF::PE::RichEntry>>::_Vector_impl" }
%"struct.std::_Vector_base<LIEF::PE::RichEntry, std::allocator<LIEF::PE::RichEntry>>::_Vector_impl" = type { %"struct.std::_Vector_base<LIEF::PE::RichEntry, std::allocator<LIEF::PE::RichEntry>>::_Vector_impl_data" }
%"struct.std::_Vector_base<LIEF::PE::RichEntry, std::allocator<LIEF::PE::RichEntry>>::_Vector_impl_data" = type { ptr, ptr, ptr }
%"class.__gnu_cxx::__normal_iterator.1075" = type { ptr }
%"class.LIEF::PE::RichEntry" = type { %"class.LIEF::Object", i16, i16, i32 }

; Function Attrs: mustprogress nounwind uwtable
define linkonce_odr hidden noundef nonnull align 8 dereferenceable(16) ptr @_ZNK9__gnu_cxx17__normal_iteratorIPN4LIEF2PE9RichEntryESt6vectorIS3_SaIS3_EEEdeEv(ptr noundef nonnull align 8 dereferenceable(8) %0) #1 comdat align 2 {
  %2 = alloca ptr, align 8
  store ptr %0, ptr %2, align 8
  %3 = load ptr, ptr %2, align 8
  %4 = getelementptr inbounds %"class.__gnu_cxx::__normal_iterator.1075", ptr %3, i32 0, i32 0
  %5 = load ptr, ptr %4, align 8
  ret ptr %5
}

; Function Attrs: mustprogress nounwind uwtable
define linkonce_odr hidden ptr @_ZNK9__gnu_cxx17__normal_iteratorIPN4LIEF2PE9RichEntryESt6vectorIS3_SaIS3_EEEmiEl(ptr noundef nonnull align 8 dereferenceable(8) %0, i64 noundef %1) #1 comdat align 2 {
  %3 = alloca %"class.__gnu_cxx::__normal_iterator.1075", align 8
  %4 = alloca ptr, align 8
  %5 = alloca i64, align 8
  %6 = alloca ptr, align 8
  store ptr %0, ptr %4, align 8
  store i64 %1, ptr %5, align 8
  %7 = load ptr, ptr %4, align 8
  %8 = getelementptr inbounds %"class.__gnu_cxx::__normal_iterator.1075", ptr %7, i32 0, i32 0
  %9 = load ptr, ptr %8, align 8
  %10 = load i64, ptr %5, align 8
  %11 = sub i64 0, %10
  %12 = getelementptr inbounds %"class.LIEF::PE::RichEntry", ptr %9, i64 %11
  store ptr %12, ptr %6, align 8
  call void @_ZN9__gnu_cxx17__normal_iteratorIPN4LIEF2PE9RichEntryESt6vectorIS3_SaIS3_EEEC2ERKS4_(ptr noundef nonnull align 8 dereferenceable(8) %3, ptr noundef nonnull align 8 dereferenceable(8) %6) #15
  %13 = getelementptr inbounds %"class.__gnu_cxx::__normal_iterator.1075", ptr %3, i32 0, i32 0
  %14 = load ptr, ptr %13, align 8
  ret ptr %14
}

; Function Attrs: mustprogress nounwind uwtable
define linkonce_odr hidden void @_ZN9__gnu_cxx17__normal_iteratorIPN4LIEF2PE9RichEntryESt6vectorIS3_SaIS3_EEEC2ERKS4_(ptr noundef nonnull align 8 dereferenceable(8) %0, ptr noundef nonnull align 8 dereferenceable(8) %1) unnamed_addr #1 comdat align 2 {
  %3 = alloca ptr, align 8
  %4 = alloca ptr, align 8
  store ptr %0, ptr %3, align 8
  store ptr %1, ptr %4, align 8
  %5 = load ptr, ptr %3, align 8
  %6 = getelementptr inbounds %"class.__gnu_cxx::__normal_iterator.1075", ptr %5, i32 0, i32 0
  %7 = load ptr, ptr %4, align 8
  %8 = load ptr, ptr %7, align 8
  store ptr %8, ptr %6, align 8
  ret void
}

; Function Attrs: mustprogress uwtable
define linkonce_odr hidden void @_ZNSt15__new_allocatorIN4LIEF2PE9RichEntryEE9constructIS2_JRtS5_RjEEEvPT_DpOT0_(ptr noundef nonnull align 1 dereferenceable(1) %0, ptr noundef %1, ptr noundef nonnull align 2 dereferenceable(2) %2, ptr noundef nonnull align 2 dereferenceable(2) %3, ptr noundef nonnull align 4 dereferenceable(4) %4) #3 comdat align 2 {
  %6 = alloca ptr, align 8
  %7 = alloca ptr, align 8
  %8 = alloca ptr, align 8
  %9 = alloca ptr, align 8
  %10 = alloca ptr, align 8
  store ptr %0, ptr %6, align 8
  store ptr %1, ptr %7, align 8
  store ptr %2, ptr %8, align 8
  store ptr %3, ptr %9, align 8
  store ptr %4, ptr %10, align 8
  %11 = load ptr, ptr %7, align 8
  %12 = load ptr, ptr %8, align 8
  %13 = load i16, ptr %12, align 2
  %14 = load ptr, ptr %9, align 8
  %15 = load i16, ptr %14, align 2
  %16 = load ptr, ptr %10, align 8
  %17 = load i32, ptr %16, align 4
  call void @_ZN4LIEF2PE9RichEntryC1Ettj(ptr noundef nonnull align 8 dereferenceable(16) %11, i16 noundef zeroext %13, i16 noundef zeroext %15, i32 noundef %17)
  ret void
}

; Function Attrs: mustprogress nounwind uwtable
define linkonce_odr hidden noundef nonnull align 8 dereferenceable(16) ptr @_ZNSt6vectorIN4LIEF2PE9RichEntryESaIS2_EE4backEv(ptr noundef nonnull align 8 dereferenceable(24) %0) #1 comdat align 2 {
  %2 = alloca ptr, align 8
  %3 = alloca %"class.__gnu_cxx::__normal_iterator.1075", align 8
  %4 = alloca %"class.__gnu_cxx::__normal_iterator.1075", align 8
  store ptr %0, ptr %2, align 8
  %5 = load ptr, ptr %2, align 8
  %6 = call ptr @_ZNSt6vectorIN4LIEF2PE9RichEntryESaIS2_EE3endEv(ptr noundef nonnull align 8 dereferenceable(24) %5) #15
  %7 = getelementptr inbounds %"class.__gnu_cxx::__normal_iterator.1075", ptr %4, i32 0, i32 0
  store ptr %6, ptr %7, align 8
  %8 = call ptr @_ZNK9__gnu_cxx17__normal_iteratorIPN4LIEF2PE9RichEntryESt6vectorIS3_SaIS3_EEEmiEl(ptr noundef nonnull align 8 dereferenceable(8) %4, i64 noundef 1) #15
  %9 = getelementptr inbounds %"class.__gnu_cxx::__normal_iterator.1075", ptr %3, i32 0, i32 0
  store ptr %8, ptr %9, align 8
  %10 = call noundef nonnull align 8 dereferenceable(16) ptr @_ZNK9__gnu_cxx17__normal_iteratorIPN4LIEF2PE9RichEntryESt6vectorIS3_SaIS3_EEEdeEv(ptr noundef nonnull align 8 dereferenceable(8) %3) #15
  ret ptr %10
}

; Function Attrs: mustprogress nounwind uwtable
define linkonce_odr hidden ptr @_ZNSt6vectorIN4LIEF2PE9RichEntryESaIS2_EE3endEv(ptr noundef nonnull align 8 dereferenceable(24) %0) #1 comdat align 2 {
  %2 = alloca %"class.__gnu_cxx::__normal_iterator.1075", align 8
  %3 = alloca ptr, align 8
  store ptr %0, ptr %3, align 8
  %4 = load ptr, ptr %3, align 8
  %5 = getelementptr inbounds %"struct.std::_Vector_base.40", ptr %4, i32 0, i32 0
  %6 = getelementptr inbounds %"struct.std::_Vector_base<LIEF::PE::RichEntry, std::allocator<LIEF::PE::RichEntry>>::_Vector_impl_data", ptr %5, i32 0, i32 1
  call void @_ZN9__gnu_cxx17__normal_iteratorIPN4LIEF2PE9RichEntryESt6vectorIS3_SaIS3_EEEC2ERKS4_(ptr noundef nonnull align 8 dereferenceable(8) %2, ptr noundef nonnull align 8 dereferenceable(8) %6) #15
  %7 = getelementptr inbounds %"class.__gnu_cxx::__normal_iterator.1075", ptr %2, i32 0, i32 0
  %8 = load ptr, ptr %7, align 8
  ret ptr %8
}

; Function Attrs: mustprogress uwtable
define linkonce_odr hidden void @_ZNSt16allocator_traitsISaIN4LIEF2PE9RichEntryEEE9constructIS2_JRtS6_RjEEEvRS3_PT_DpOT0_(ptr noundef nonnull align 1 dereferenceable(1) %0, ptr noundef %1, ptr noundef nonnull align 2 dereferenceable(2) %2, ptr noundef nonnull align 2 dereferenceable(2) %3, ptr noundef nonnull align 4 dereferenceable(4) %4) #3 comdat align 2 {
  %6 = alloca ptr, align 8
  %7 = alloca ptr, align 8
  %8 = alloca ptr, align 8
  %9 = alloca ptr, align 8
  %10 = alloca ptr, align 8
  store ptr %0, ptr %6, align 8
  store ptr %1, ptr %7, align 8
  store ptr %2, ptr %8, align 8
  store ptr %3, ptr %9, align 8
  store ptr %4, ptr %10, align 8
  %11 = load ptr, ptr %6, align 8
  %12 = load ptr, ptr %7, align 8
  %13 = load ptr, ptr %8, align 8
  %14 = load ptr, ptr %9, align 8
  %15 = load ptr, ptr %10, align 8
  call void @_ZNSt15__new_allocatorIN4LIEF2PE9RichEntryEE9constructIS2_JRtS5_RjEEEvPT_DpOT0_(ptr noundef nonnull align 1 dereferenceable(1) %11, ptr noundef %12, ptr noundef nonnull align 2 dereferenceable(2) %13, ptr noundef nonnull align 2 dereferenceable(2) %14, ptr noundef nonnull align 4 dereferenceable(4) %15)
  ret void
}

; Function Attrs: mustprogress uwtable
define linkonce_odr noundef nonnull align 8 dereferenceable(16) ptr @_ZNSt6vectorIN4LIEF2PE9RichEntryESaIS2_EE12emplace_backIJRtS6_RjEEERS2_DpOT_(ptr noundef nonnull align 8 dereferenceable(24) %0, ptr noundef nonnull align 2 dereferenceable(2) %1, ptr noundef nonnull align 2 dereferenceable(2) %2, ptr noundef nonnull align 4 dereferenceable(4) %3) #3 comdat align 2 {
  %5 = alloca ptr, align 8
  %6 = alloca ptr, align 8
  %7 = alloca ptr, align 8
  %8 = alloca ptr, align 8
  %9 = alloca %"class.__gnu_cxx::__normal_iterator.1075", align 8
  store ptr %0, ptr %5, align 8
  store ptr %1, ptr %6, align 8
  store ptr %2, ptr %7, align 8
  store ptr %3, ptr %8, align 8
  %10 = load ptr, ptr %5, align 8
  %11 = getelementptr inbounds %"struct.std::_Vector_base.40", ptr %10, i32 0, i32 0
  %12 = getelementptr inbounds %"struct.std::_Vector_base<LIEF::PE::RichEntry, std::allocator<LIEF::PE::RichEntry>>::_Vector_impl_data", ptr %11, i32 0, i32 1
  %13 = load ptr, ptr %12, align 8
  %14 = getelementptr inbounds %"struct.std::_Vector_base.40", ptr %10, i32 0, i32 0
  %15 = getelementptr inbounds %"struct.std::_Vector_base<LIEF::PE::RichEntry, std::allocator<LIEF::PE::RichEntry>>::_Vector_impl_data", ptr %14, i32 0, i32 2
  %16 = load ptr, ptr %15, align 8
  %17 = icmp ne ptr %13, %16
  br i1 %17, label %18, label %30

18:                                               ; preds = %4
  %19 = getelementptr inbounds %"struct.std::_Vector_base.40", ptr %10, i32 0, i32 0
  %20 = getelementptr inbounds %"struct.std::_Vector_base.40", ptr %10, i32 0, i32 0
  %21 = getelementptr inbounds %"struct.std::_Vector_base<LIEF::PE::RichEntry, std::allocator<LIEF::PE::RichEntry>>::_Vector_impl_data", ptr %20, i32 0, i32 1
  %22 = load ptr, ptr %21, align 8
  %23 = load ptr, ptr %6, align 8
  %24 = load ptr, ptr %7, align 8
  %25 = load ptr, ptr %8, align 8
  call void @_ZNSt16allocator_traitsISaIN4LIEF2PE9RichEntryEEE9constructIS2_JRtS6_RjEEEvRS3_PT_DpOT0_(ptr noundef nonnull align 1 dereferenceable(1) %19, ptr noundef %22, ptr noundef nonnull align 2 dereferenceable(2) %23, ptr noundef nonnull align 2 dereferenceable(2) %24, ptr noundef nonnull align 4 dereferenceable(4) %25)
  %26 = getelementptr inbounds %"struct.std::_Vector_base.40", ptr %10, i32 0, i32 0
  %27 = getelementptr inbounds %"struct.std::_Vector_base<LIEF::PE::RichEntry, std::allocator<LIEF::PE::RichEntry>>::_Vector_impl_data", ptr %26, i32 0, i32 1
  %28 = load ptr, ptr %27, align 8
  %29 = getelementptr inbounds %"class.LIEF::PE::RichEntry", ptr %28, i32 1
  store ptr %29, ptr %27, align 8
  br label %38

30:                                               ; preds = %4
  %31 = call ptr @_ZNSt6vectorIN4LIEF2PE9RichEntryESaIS2_EE3endEv(ptr noundef nonnull align 8 dereferenceable(24) %10) #15
  %32 = getelementptr inbounds %"class.__gnu_cxx::__normal_iterator.1075", ptr %9, i32 0, i32 0
  store ptr %31, ptr %32, align 8
  %33 = load ptr, ptr %6, align 8
  %34 = load ptr, ptr %7, align 8
  %35 = load ptr, ptr %8, align 8
  %36 = getelementptr inbounds %"class.__gnu_cxx::__normal_iterator.1075", ptr %9, i32 0, i32 0
  %37 = load ptr, ptr %36, align 8
  call void @_ZNSt6vectorIN4LIEF2PE9RichEntryESaIS2_EE17_M_realloc_insertIJRtS6_RjEEEvN9__gnu_cxx17__normal_iteratorIPS2_S4_EEDpOT_(ptr noundef nonnull align 8 dereferenceable(24) %10, ptr %37, ptr noundef nonnull align 2 dereferenceable(2) %33, ptr noundef nonnull align 2 dereferenceable(2) %34, ptr noundef nonnull align 4 dereferenceable(4) %35)
  br label %38

38:                                               ; preds = %30, %18
  %39 = call noundef nonnull align 8 dereferenceable(16) ptr @_ZNSt6vectorIN4LIEF2PE9RichEntryESaIS2_EE4backEv(ptr noundef nonnull align 8 dereferenceable(24) %10) #15
  ret ptr %39
}

; Function Attrs: mustprogress uwtable
define void @_ZN4LIEF2PE10RichHeader9add_entryEttj(ptr noundef nonnull align 8 dereferenceable(40) %0, i16 noundef zeroext %1, i16 noundef zeroext %2, i32 noundef %3) #3 align 2 {
  %5 = alloca ptr, align 8
  %6 = alloca i16, align 2
  %7 = alloca i16, align 2
  %8 = alloca i32, align 4
  store ptr %0, ptr %5, align 8
  store i16 %1, ptr %6, align 2
  store i16 %2, ptr %7, align 2
  store i32 %3, ptr %8, align 4
  %9 = load ptr, ptr %5, align 8
  %10 = getelementptr inbounds %"class.LIEF::PE::RichHeader", ptr %9, i32 0, i32 2
  %11 = call noundef nonnull align 8 dereferenceable(16) ptr @_ZNSt6vectorIN4LIEF2PE9RichEntryESaIS2_EE12emplace_backIJRtS6_RjEEERS2_DpOT_(ptr noundef nonnull align 8 dereferenceable(24) %10, ptr noundef nonnull align 2 dereferenceable(2) %6, ptr noundef nonnull align 2 dereferenceable(2) %7, ptr noundef nonnull align 4 dereferenceable(4) %8)
  ret void
}