; Function Attrs: mustprogress uwtable
define void @_ZN4LIEF2PE10RichHeader9add_entryEttj(ptr noundef nonnull align 8 dereferenceable(40) %0, i16 noundef zeroext %1, i16 noundef zeroext %2, i32 noundef %3) local_unnamed_addr #3 align 2 {
  %5 = alloca i16, align 2
  %6 = alloca i16, align 2
  %7 = alloca i32, align 4
  store i16 %1, ptr %5, align 2
  store i16 %2, ptr %6, align 2
  store i32 %3, ptr %7, align 4
  %8 = getelementptr inbounds i8, ptr %0, i64 24
  %9 = load ptr, ptr %8, align 8
  %10 = getelementptr inbounds i8, ptr %0, i64 32
  %11 = load ptr, ptr %10, align 8
  %.not.i = icmp eq ptr %9, %11
  br i1 %.not.i, label %15, label %12

12:                                               ; preds = %4
  tail call void @_ZN4LIEF2PE9RichEntryC1Ettj(ptr noundef nonnull align 8 dereferenceable(16) %9, i16 noundef zeroext %1, i16 noundef zeroext %2, i32 noundef %3)
  %13 = load ptr, ptr %8, align 8
  %14 = getelementptr inbounds i8, ptr %13, i64 16
  store ptr %14, ptr %8, align 8
  br label %_ZNSt6vectorIN4LIEF2PE9RichEntryESaIS2_EE12emplace_backIJRtS6_RjEEERS2_DpOT_.exit

15:                                               ; preds = %4
  %16 = getelementptr inbounds i8, ptr %0, i64 16
  call void @_ZNSt6vectorIN4LIEF2PE9RichEntryESaIS2_EE17_M_realloc_insertIJRtS6_RjEEEvN9__gnu_cxx17__normal_iteratorIPS2_S4_EEDpOT_(ptr noundef nonnull align 8 dereferenceable(24) %16, ptr %9, ptr noundef nonnull align 2 dereferenceable(2) %5, ptr noundef nonnull align 2 dereferenceable(2) %6, ptr noundef nonnull align 4 dereferenceable(4) %7)
  br label %_ZNSt6vectorIN4LIEF2PE9RichEntryESaIS2_EE12emplace_backIJRtS6_RjEEERS2_DpOT_.exit

_ZNSt6vectorIN4LIEF2PE9RichEntryESaIS2_EE12emplace_backIJRtS6_RjEEERS2_DpOT_.exit: ; preds = %12, %15
  ret void
}